target datalayout = "e-m:e-p270:32:32-p271:32:32-p272:64:64-i64:64-i128:128-f80:128-n8:16:32:64-S128"
target triple = "x86_64-pc-linux-gnu"

%struct._address = type { i32, i32, ptr, ptr }
%struct._packet_info = type { ptr, ptr, i32, i32, %struct.nstime_t, %struct.nstime_t, %struct.nstime_t, i8, ptr, ptr, ptr, ptr, %struct._address, %struct._address, %struct._address, %struct._address, %struct._address, %struct._address, i32, ptr, i8, [3 x i8], %struct.anon, i32, i32, i32, i32, ptr, i8, ptr, ptr, i16, i16, i32, i32, i16, i32, i32, ptr, ptr, ptr, i8, i8, i16, i16, i16, i32, i16, i16, ptr, ptr, ptr, ptr, ptr, i32, i32 }
%struct.nstime_t = type { i64, i32 }
%struct.anon = type { i8, [3 x i8] }

@hf_dvbci_app_dom_id_len = internal global i32 0, align 4
@hf_dvbci_init_obj_len = internal global i32 0, align 4
@hf_dvbci_app_dom_id = internal global i32 0, align 4
@hf_dvbci_init_obj = internal global i32 0, align 4
@hf_dvbci_ack_code = internal global i32 0, align 4
@hf_dvbci_abort_req_code = internal global i32 0, align 4
@hf_dvbci_abort_ack_code = internal global i32 0, align 4
@.str.990 = private unnamed_addr constant [3 x i8] c": \00", align 1
@.str.1006 = private unnamed_addr constant [8 x i8] c"unknown\00", align 1
@.str.1020 = private unnamed_addr constant [2 x i8] c" \00", align 1
@.str.1068 = private unnamed_addr constant [7 x i8] c"for %s\00", align 1

; Function Attrs: null_pointer_is_valid sspstrong uwtable
define internal void @dissect_dvbci_payload_ami(i32 noundef %0, i32 noundef %1, ptr noundef %2, i32 noundef %3, ptr noundef %4, ptr noundef %5, ptr noundef %6) #0 {
  %8 = alloca i32, align 4
  %9 = alloca i32, align 4
  %10 = alloca ptr, align 8
  %11 = alloca i32, align 4
  %12 = alloca ptr, align 8
  %13 = alloca ptr, align 8
  %14 = alloca ptr, align 8
  %15 = alloca i8, align 1
  %16 = alloca i8, align 1
  %17 = alloca ptr, align 8
  %18 = alloca i8, align 1
  store i32 %0, ptr %8, align 4
  store i32 %1, ptr %9, align 4
  store ptr %2, ptr %10, align 8
  store i32 %3, ptr %11, align 4
  store ptr %4, ptr %12, align 8
  store ptr %5, ptr %13, align 8
  store ptr %6, ptr %14, align 8
  call void @llvm.lifetime.start.p0(i64 1, ptr %15) #11
  call void @llvm.lifetime.start.p0(i64 1, ptr %16) #11
  call void @llvm.lifetime.start.p0(i64 8, ptr %17) #11
  call void @llvm.lifetime.start.p0(i64 1, ptr %18) #11
  %19 = load i32, ptr %8, align 4
  switch i32 %19, label %125 [
    i32 10452992, label %20
    i32 10452993, label %70
    i32 10452994, label %85
    i32 10452995, label %90
    i32 10452996, label %95
    i32 10452997, label %110
  ]

20:                                               ; preds = %7
  %21 = load ptr, ptr %10, align 8
  %22 = load i32, ptr %11, align 4
  %23 = call zeroext i8 @tvb_get_uint8(ptr noundef %21, i32 noundef %22)
  store i8 %23, ptr %15, align 1
  %24 = load ptr, ptr %14, align 8
  %25 = load i32, ptr @hf_dvbci_app_dom_id_len, align 4
  %26 = load ptr, ptr %10, align 8
  %27 = load i32, ptr %11, align 4
  %28 = call ptr @proto_tree_add_item(ptr noundef %24, i32 noundef %25, ptr noundef %26, i32 noundef %27, i32 noundef 1, i32 noundef 0)
  %29 = load i32, ptr %11, align 4
  %30 = add i32 %29, 1
  store i32 %30, ptr %11, align 4
  %31 = load ptr, ptr %10, align 8
  %32 = load i32, ptr %11, align 4
  %33 = call zeroext i8 @tvb_get_uint8(ptr noundef %31, i32 noundef %32)
  store i8 %33, ptr %16, align 1
  %34 = load ptr, ptr %14, align 8
  %35 = load i32, ptr @hf_dvbci_init_obj_len, align 4
  %36 = load ptr, ptr %10, align 8
  %37 = load i32, ptr %11, align 4
  %38 = call ptr @proto_tree_add_item(ptr noundef %34, i32 noundef %35, ptr noundef %36, i32 noundef %37, i32 noundef 1, i32 noundef 0)
  %39 = load i32, ptr %11, align 4
  %40 = add i32 %39, 1
  store i32 %40, ptr %11, align 4
  %41 = load ptr, ptr %14, align 8
  %42 = load i32, ptr @hf_dvbci_app_dom_id, align 4
  %43 = load ptr, ptr %10, align 8
  %44 = load i32, ptr %11, align 4
  %45 = load i8, ptr %15, align 1
  %46 = zext i8 %45 to i32
  %47 = load ptr, ptr %13, align 8
  %48 = getelementptr inbounds nuw %struct._packet_info, ptr %47, i32 0, i32 51
  %49 = load ptr, ptr %48, align 8
  %50 = call ptr @proto_tree_add_item_ret_string(ptr noundef %41, i32 noundef %42, ptr noundef %43, i32 noundef %44, i32 noundef %46, i32 noundef 0, ptr noundef %49, ptr noundef %17)
  %51 = load ptr, ptr %17, align 8
  %52 = icmp ne ptr %51, null
  br i1 %52, label %53, label %58

53:                                               ; preds = %20
  %54 = load ptr, ptr %13, align 8
  %55 = getelementptr inbounds nuw %struct._packet_info, ptr %54, i32 0, i32 1
  %56 = load ptr, ptr %55, align 8
  %57 = load ptr, ptr %17, align 8
  call void (ptr, i32, ptr, ptr, ...) @col_append_sep_fstr(ptr noundef %56, i32 noundef 25, ptr noundef @.str.1020, ptr noundef @.str.1068, ptr noundef %57)
  br label %58

58:                                               ; preds = %53, %20
  %59 = load i8, ptr %15, align 1
  %60 = zext i8 %59 to i32
  %61 = load i32, ptr %11, align 4
  %62 = add i32 %61, %60
  store i32 %62, ptr %11, align 4
  %63 = load ptr, ptr %14, align 8
  %64 = load i32, ptr @hf_dvbci_init_obj, align 4
  %65 = load ptr, ptr %10, align 8
  %66 = load i32, ptr %11, align 4
  %67 = load i8, ptr %16, align 1
  %68 = zext i8 %67 to i32
  %69 = call ptr @proto_tree_add_item(ptr noundef %63, i32 noundef %64, ptr noundef %65, i32 noundef %66, i32 noundef %68, i32 noundef 0)
  br label %126

70:                                               ; preds = %7
  %71 = load ptr, ptr %10, align 8
  %72 = load i32, ptr %11, align 4
  %73 = call zeroext i8 @tvb_get_uint8(ptr noundef %71, i32 noundef %72)
  store i8 %73, ptr %18, align 1
  %74 = load ptr, ptr %14, align 8
  %75 = load i32, ptr @hf_dvbci_ack_code, align 4
  %76 = load ptr, ptr %10, align 8
  %77 = load i32, ptr %11, align 4
  %78 = call ptr @proto_tree_add_item(ptr noundef %74, i32 noundef %75, ptr noundef %76, i32 noundef %77, i32 noundef 1, i32 noundef 0)
  %79 = load ptr, ptr %13, align 8
  %80 = getelementptr inbounds nuw %struct._packet_info, ptr %79, i32 0, i32 1
  %81 = load ptr, ptr %80, align 8
  %82 = load i8, ptr %18, align 1
  %83 = zext i8 %82 to i32
  %84 = call ptr @val_to_str_const(i32 noundef %83, ptr noundef @dvbci_ack_code, ptr noundef @.str.1006)
  call void @col_append_sep_str(ptr noundef %81, i32 noundef 25, ptr noundef @.str.990, ptr noundef %84)
  br label %126

85:                                               ; preds = %7
  %86 = load ptr, ptr %10, align 8
  %87 = load i32, ptr %11, align 4
  %88 = load ptr, ptr %13, align 8
  %89 = load ptr, ptr %14, align 8
  call void @dissect_dvbci_ami_file_req(ptr noundef %86, i32 noundef %87, ptr noundef %88, ptr noundef %89)
  br label %126

90:                                               ; preds = %7
  %91 = load ptr, ptr %10, align 8
  %92 = load i32, ptr %11, align 4
  %93 = load ptr, ptr %13, align 8
  %94 = load ptr, ptr %14, align 8
  call void @dissect_dvbci_ami_file_ack(ptr noundef %91, i32 noundef %92, ptr noundef %93, ptr noundef %94)
  br label %126

95:                                               ; preds = %7
  %96 = load ptr, ptr %10, align 8
  %97 = load i32, ptr %11, align 4
  %98 = call i32 @tvb_reported_length_remaining(ptr noundef %96, i32 noundef %97)
  %99 = icmp sgt i32 %98, 0
  br i1 %99, label %100, label %109

100:                                              ; preds = %95
  %101 = load ptr, ptr %14, align 8
  %102 = load i32, ptr @hf_dvbci_abort_req_code, align 4
  %103 = load ptr, ptr %10, align 8
  %104 = load i32, ptr %11, align 4
  %105 = load ptr, ptr %10, align 8
  %106 = load i32, ptr %11, align 4
  %107 = call i32 @tvb_reported_length_remaining(ptr noundef %105, i32 noundef %106)
  %108 = call ptr @proto_tree_add_item(ptr noundef %101, i32 noundef %102, ptr noundef %103, i32 noundef %104, i32 noundef %107, i32 noundef 0)
  br label %109

109:                                              ; preds = %100, %95
  br label %126

110:                                              ; preds = %7
  %111 = load ptr, ptr %10, align 8
  %112 = load i32, ptr %11, align 4
  %113 = call i32 @tvb_reported_length_remaining(ptr noundef %111, i32 noundef %112)
  %114 = icmp sgt i32 %113, 0
  br i1 %114, label %115, label %124

115:                                              ; preds = %110
  %116 = load ptr, ptr %14, align 8
  %117 = load i32, ptr @hf_dvbci_abort_ack_code, align 4
  %118 = load ptr, ptr %10, align 8
  %119 = load i32, ptr %11, align 4
  %120 = load ptr, ptr %10, align 8
  %121 = load i32, ptr %11, align 4
  %122 = call i32 @tvb_reported_length_remaining(ptr noundef %120, i32 noundef %121)
  %123 = call ptr @proto_tree_add_item(ptr noundef %116, i32 noundef %117, ptr noundef %118, i32 noundef %119, i32 noundef %122, i32 noundef 0)
  br label %124

124:                                              ; preds = %115, %110
  br label %126

125:                                              ; preds = %7
  br label %126

126:                                              ; preds = %125, %124, %109, %90, %85, %70, %58
  call void @llvm.lifetime.end.p0(i64 1, ptr %18) #11
  call void @llvm.lifetime.end.p0(i64 8, ptr %17) #11
  call void @llvm.lifetime.end.p0(i64 1, ptr %16) #11
  call void @llvm.lifetime.end.p0(i64 1, ptr %15) #11
  ret void
}