; Function Attrs: null_pointer_is_valid sspstrong uwtable
define internal void @dissect_dvbci_payload_ami(i32 noundef %0, i32 %1, ptr noundef %2, i32 noundef %3, ptr readnone captures(none) %4, ptr noundef %5, ptr noundef %6) #1 {
  %8 = alloca ptr, align 8
  call void @llvm.lifetime.start.p0(i64 8, ptr nonnull %8) #16
  switch i32 %0, label %56 [
    i32 10452992, label %9
    i32 10452993, label %32
    i32 10452994, label %40
    i32 10452995, label %41
    i32 10452996, label %42
    i32 10452997, label %49
  ]

9:                                                ; preds = %7
  %10 = tail call zeroext i8 @tvb_get_uint8(ptr noundef %2, i32 noundef %3)
  %11 = load i32, ptr @hf_dvbci_app_dom_id_len, align 4
  %12 = tail call ptr @proto_tree_add_item(ptr noundef %6, i32 noundef %11, ptr noundef %2, i32 noundef %3, i32 noundef 1, i32 noundef 0)
  %13 = add i32 %3, 1
  %14 = tail call zeroext i8 @tvb_get_uint8(ptr noundef %2, i32 noundef %13)
  %15 = load i32, ptr @hf_dvbci_init_obj_len, align 4
  %16 = tail call ptr @proto_tree_add_item(ptr noundef %6, i32 noundef %15, ptr noundef %2, i32 noundef %13, i32 noundef 1, i32 noundef 0)
  %17 = add i32 %3, 2
  %18 = load i32, ptr @hf_dvbci_app_dom_id, align 4
  %19 = zext i8 %10 to i32
  %20 = getelementptr inbounds nuw i8, ptr %5, i64 408
  %21 = load ptr, ptr %20, align 8
  %22 = call ptr @proto_tree_add_item_ret_string(ptr noundef %6, i32 noundef %18, ptr noundef %2, i32 noundef %17, i32 noundef %19, i32 noundef 0, ptr noundef %21, ptr noundef nonnull %8)
  %23 = load ptr, ptr %8, align 8
  %.not = icmp eq ptr %23, null
  br i1 %.not, label %27, label %24

24:                                               ; preds = %9
  %25 = getelementptr inbounds nuw i8, ptr %5, i64 8
  %26 = load ptr, ptr %25, align 8
  call void (ptr, i32, ptr, ptr, ...) @col_append_sep_fstr(ptr noundef %26, i32 noundef 25, ptr noundef nonnull @.str.1020, ptr noundef nonnull @.str.1068, ptr noundef nonnull %23)
  br label %27

27:                                               ; preds = %24, %9
  %28 = add i32 %17, %19
  %29 = load i32, ptr @hf_dvbci_init_obj, align 4
  %30 = zext i8 %14 to i32
  %31 = call ptr @proto_tree_add_item(ptr noundef %6, i32 noundef %29, ptr noundef %2, i32 noundef %28, i32 noundef %30, i32 noundef 0)
  br label %56

32:                                               ; preds = %7
  %33 = tail call zeroext i8 @tvb_get_uint8(ptr noundef %2, i32 noundef %3)
  %34 = load i32, ptr @hf_dvbci_ack_code, align 4
  %35 = tail call ptr @proto_tree_add_item(ptr noundef %6, i32 noundef %34, ptr noundef %2, i32 noundef %3, i32 noundef 1, i32 noundef 0)
  %36 = getelementptr inbounds nuw i8, ptr %5, i64 8
  %37 = load ptr, ptr %36, align 8
  %38 = zext i8 %33 to i32
  %39 = tail call ptr @val_to_str_const(i32 noundef %38, ptr noundef nonnull @dvbci_ack_code, ptr noundef nonnull @.str.1006)
  tail call void @col_append_sep_str(ptr noundef %37, i32 noundef 25, ptr noundef nonnull @.str.990, ptr noundef %39)
  br label %56

40:                                               ; preds = %7
  tail call fastcc void @dissect_dvbci_ami_file_req(ptr noundef %2, i32 noundef %3, ptr noundef %5, ptr noundef %6)
  br label %56

41:                                               ; preds = %7
  tail call fastcc void @dissect_dvbci_ami_file_ack(ptr noundef %2, i32 noundef %3, ptr noundef %5, ptr noundef %6)
  br label %56

42:                                               ; preds = %7
  %43 = tail call i32 @tvb_reported_length_remaining(ptr noundef %2, i32 noundef %3)
  %44 = icmp sgt i32 %43, 0
  br i1 %44, label %45, label %56

45:                                               ; preds = %42
  %46 = load i32, ptr @hf_dvbci_abort_req_code, align 4
  %47 = tail call i32 @tvb_reported_length_remaining(ptr noundef %2, i32 noundef %3)
  %48 = tail call ptr @proto_tree_add_item(ptr noundef %6, i32 noundef %46, ptr noundef %2, i32 noundef %3, i32 noundef %47, i32 noundef 0)
  br label %56

49:                                               ; preds = %7
  %50 = tail call i32 @tvb_reported_length_remaining(ptr noundef %2, i32 noundef %3)
  %51 = icmp sgt i32 %50, 0
  br i1 %51, label %52, label %56

52:                                               ; preds = %49
  %53 = load i32, ptr @hf_dvbci_abort_ack_code, align 4
  %54 = tail call i32 @tvb_reported_length_remaining(ptr noundef %2, i32 noundef %3)
  %55 = tail call ptr @proto_tree_add_item(ptr noundef %6, i32 noundef %53, ptr noundef %2, i32 noundef %3, i32 noundef %54, i32 noundef 0)
  br label %56

56:                                               ; preds = %7, %49, %52, %42, %45, %41, %40, %32, %27
  call void @llvm.lifetime.end.p0(i64 8, ptr nonnull %8) #16
  ret void
}